target datalayout = "e-m:e-p270:32:32-p271:32:32-p272:64:64-i64:64-i128:128-f80:128-n8:16:32:64-S128"
target triple = "x86_64-pc-linux-gnu"

%struct.decNumber = type { i32, i32, i8, [1 x i8] }

@_ZL8d2utable = internal constant [50 x i8] c"\00\01\02\03\04\05\06\07\08\09\0A\0B\0C\0D\0E\0F\10\11\12\13\14\15\16\17\18\19\1A\1B\1C\1D\1E\1F !\22#$%&'()*+,-./01", align 16

; Function Attrs: mustprogress nounwind uwtable
define ptr @uprv_decNumberSetBCD_77(ptr noundef %0, ptr noundef %1, i32 noundef %2) #2 {
  %4 = alloca ptr, align 8
  %5 = alloca ptr, align 8
  %6 = alloca i32, align 4
  %7 = alloca ptr, align 8
  %8 = alloca ptr, align 8
  store ptr %0, ptr %4, align 8, !tbaa !3
  store ptr %1, ptr %5, align 8, !tbaa !11
  store i32 %2, ptr %6, align 4, !tbaa !7
  call void @llvm.lifetime.start.p0(i64 8, ptr %7) #8
  %9 = load ptr, ptr %4, align 8, !tbaa !3
  %10 = getelementptr inbounds nuw %struct.decNumber, ptr %9, i32 0, i32 3
  %11 = getelementptr inbounds [1 x i8], ptr %10, i64 0, i64 0
  %12 = load ptr, ptr %4, align 8, !tbaa !3
  %13 = getelementptr inbounds nuw %struct.decNumber, ptr %12, i32 0, i32 0
  %14 = load i32, ptr %13, align 4, !tbaa !16
  %15 = icmp sle i32 %14, 49
  br i1 %15, label %16, label %24

16:                                               ; preds = %3
  %17 = load ptr, ptr %4, align 8, !tbaa !3
  %18 = getelementptr inbounds nuw %struct.decNumber, ptr %17, i32 0, i32 0
  %19 = load i32, ptr %18, align 4, !tbaa !16
  %20 = sext i32 %19 to i64
  %21 = getelementptr inbounds [50 x i8], ptr @_ZL8d2utable, i64 0, i64 %20
  %22 = load i8, ptr %21, align 1, !tbaa !13
  %23 = zext i8 %22 to i32
  br label %31

24:                                               ; preds = %3
  %25 = load ptr, ptr %4, align 8, !tbaa !3
  %26 = getelementptr inbounds nuw %struct.decNumber, ptr %25, i32 0, i32 0
  %27 = load i32, ptr %26, align 4, !tbaa !16
  %28 = add nsw i32 %27, 1
  %29 = sub nsw i32 %28, 1
  %30 = sdiv i32 %29, 1
  br label %31

31:                                               ; preds = %24, %16
  %32 = phi i32 [ %23, %16 ], [ %30, %24 ]
  %33 = sext i32 %32 to i64
  %34 = getelementptr inbounds i8, ptr %11, i64 %33
  %35 = getelementptr inbounds i8, ptr %34, i64 -1
  store ptr %35, ptr %7, align 8, !tbaa !11
  call void @llvm.lifetime.start.p0(i64 8, ptr %8) #8
  %36 = load ptr, ptr %5, align 8, !tbaa !11
  store ptr %36, ptr %8, align 8, !tbaa !11
  br label %37

37:                                               ; preds = %48, %31
  %38 = load ptr, ptr %8, align 8, !tbaa !11
  %39 = load ptr, ptr %5, align 8, !tbaa !11
  %40 = load i32, ptr %6, align 4, !tbaa !7
  %41 = zext i32 %40 to i64
  %42 = getelementptr inbounds nuw i8, ptr %39, i64 %41
  %43 = icmp ult ptr %38, %42
  br i1 %43, label %44, label %53

44:                                               ; preds = %37
  %45 = load ptr, ptr %8, align 8, !tbaa !11
  %46 = load i8, ptr %45, align 1, !tbaa !13
  %47 = load ptr, ptr %7, align 8, !tbaa !11
  store i8 %46, ptr %47, align 1, !tbaa !13
  br label %48

48:                                               ; preds = %44
  %49 = load ptr, ptr %8, align 8, !tbaa !11
  %50 = getelementptr inbounds nuw i8, ptr %49, i32 1
  store ptr %50, ptr %8, align 8, !tbaa !11
  %51 = load ptr, ptr %7, align 8, !tbaa !11
  %52 = getelementptr inbounds i8, ptr %51, i32 -1
  store ptr %52, ptr %7, align 8, !tbaa !11
  br label %37, !llvm.loop !113

53:                                               ; preds = %37
  %54 = load i32, ptr %6, align 4, !tbaa !7
  %55 = load ptr, ptr %4, align 8, !tbaa !3
  %56 = getelementptr inbounds nuw %struct.decNumber, ptr %55, i32 0, i32 0
  store i32 %54, ptr %56, align 4, !tbaa !16
  %57 = load ptr, ptr %4, align 8, !tbaa !3
  call void @llvm.lifetime.end.p0(i64 8, ptr %8) #8
  call void @llvm.lifetime.end.p0(i64 8, ptr %7) #8
  ret ptr %57
}