; Function Attrs: mustprogress nofree norecurse nosync nounwind memory(argmem: readwrite) uwtable
define noundef ptr @uprv_decNumberSetBCD_77(ptr noundef returned %0, ptr noundef readonly %1, i32 noundef %2) local_unnamed_addr #0 {
  %4 = getelementptr inbounds nuw i8, ptr %0, i64 9
  %5 = load i32, ptr %0, align 4, !tbaa !9
  %6 = icmp slt i32 %5, 50
  br i1 %6, label %7, label %12

7:                                                ; preds = %3
  %8 = sext i32 %5 to i64
  %9 = getelementptr inbounds [50 x i8], ptr @_ZL8d2utable, i64 0, i64 %8
  %10 = load i8, ptr %9, align 1, !tbaa !10
  %11 = zext i8 %10 to i32
  br label %12

12:                                               ; preds = %3, %7
  %13 = phi i32 [ %11, %7 ], [ %5, %3 ]
  %14 = zext i32 %2 to i64
  %15 = getelementptr inbounds nuw i8, ptr %1, i64 %14
  %.not = icmp eq i32 %2, 0
  br i1 %.not, label %._crit_edge, label %.lr.ph.preheader

.lr.ph.preheader:                                 ; preds = %12
  %16 = zext nneg i32 %13 to i64
  %17 = getelementptr inbounds nuw i8, ptr %4, i64 %16
  br label %.lr.ph

.lr.ph:                                           ; preds = %.lr.ph.preheader, %.lr.ph
  %.017 = phi ptr [ %19, %.lr.ph ], [ %1, %.lr.ph.preheader ]
  %.pn16 = phi ptr [ %.014, %.lr.ph ], [ %17, %.lr.ph.preheader ]
  %.014 = getelementptr inbounds i8, ptr %.pn16, i64 -1
  %18 = load i8, ptr %.017, align 1, !tbaa !10
  store i8 %18, ptr %.014, align 1, !tbaa !10
  %19 = getelementptr inbounds nuw i8, ptr %.017, i64 1
  %20 = icmp ult ptr %19, %15
  br i1 %20, label %.lr.ph, label %._crit_edge, !llvm.loop !96

._crit_edge:                                      ; preds = %.lr.ph, %12
  store i32 %2, ptr %0, align 4, !tbaa !9
  ret ptr %0
}